target datalayout = "e-m:e-p270:32:32-p271:32:32-p272:64:64-i64:64-i128:128-f80:128-n8:16:32:64-S128"
target triple = "x86_64-pc-linux-gnu"

%struct.ident_t = type { i32, i32, i32, i32, ptr }
%struct.Qureg = type { i32, i32, i32, i64, i64, i32, i32, %struct.ComplexArray, %struct.ComplexArray, %struct.ComplexArray, ptr, ptr, ptr, ptr, ptr, ptr }
%struct.ComplexArray = type { ptr, ptr }
%struct.Complex = type { double, double }

@3 = private unnamed_addr constant %struct.ident_t { i32 0, i32 2, i32 0, i32 22, ptr @0 }, align 8

; Function Attrs: nounwind uwtable
define void @statevec_setWeightedQureg(double %0, double %1, ptr noundef byval(%struct.Qureg) align 8 %2, double %3, double %4, ptr noundef byval(%struct.Qureg) align 8 %5, double %6, double %7, ptr noundef byval(%struct.Qureg) align 8 %8) #0 {
  %10 = alloca %struct.Complex, align 8
  %11 = alloca %struct.Complex, align 8
  %12 = alloca %struct.Complex, align 8
  %13 = alloca i64, align 8
  %14 = alloca ptr, align 8
  %15 = alloca ptr, align 8
  %16 = alloca ptr, align 8
  %17 = alloca ptr, align 8
  %18 = alloca ptr, align 8
  %19 = alloca ptr, align 8
  %20 = alloca double, align 8
  %21 = alloca double, align 8
  %22 = alloca double, align 8
  %23 = alloca double, align 8
  %24 = alloca double, align 8
  %25 = alloca double, align 8
  %26 = getelementptr inbounds nuw { double, double }, ptr %10, i32 0, i32 0
  store double %0, ptr %26, align 8
  %27 = getelementptr inbounds nuw { double, double }, ptr %10, i32 0, i32 1
  store double %1, ptr %27, align 8
  %28 = getelementptr inbounds nuw { double, double }, ptr %11, i32 0, i32 0
  store double %3, ptr %28, align 8
  %29 = getelementptr inbounds nuw { double, double }, ptr %11, i32 0, i32 1
  store double %4, ptr %29, align 8
  %30 = getelementptr inbounds nuw { double, double }, ptr %12, i32 0, i32 0
  store double %6, ptr %30, align 8
  %31 = getelementptr inbounds nuw { double, double }, ptr %12, i32 0, i32 1
  store double %7, ptr %31, align 8
  call void @llvm.lifetime.start.p0(i64 8, ptr %13) #3
  %32 = getelementptr inbounds nuw %struct.Qureg, ptr %2, i32 0, i32 3
  %33 = load i64, ptr %32, align 8, !tbaa !12
  store i64 %33, ptr %13, align 8, !tbaa !4
  call void @llvm.lifetime.start.p0(i64 8, ptr %14) #3
  %34 = getelementptr inbounds nuw %struct.Qureg, ptr %2, i32 0, i32 7
  %35 = getelementptr inbounds nuw %struct.ComplexArray, ptr %34, i32 0, i32 0
  %36 = load ptr, ptr %35, align 8, !tbaa !27
  store ptr %36, ptr %14, align 8, !tbaa !25
  call void @llvm.lifetime.start.p0(i64 8, ptr %15) #3
  %37 = getelementptr inbounds nuw %struct.Qureg, ptr %2, i32 0, i32 7
  %38 = getelementptr inbounds nuw %struct.ComplexArray, ptr %37, i32 0, i32 1
  %39 = load ptr, ptr %38, align 8, !tbaa !28
  store ptr %39, ptr %15, align 8, !tbaa !25
  call void @llvm.lifetime.start.p0(i64 8, ptr %16) #3
  %40 = getelementptr inbounds nuw %struct.Qureg, ptr %5, i32 0, i32 7
  %41 = getelementptr inbounds nuw %struct.ComplexArray, ptr %40, i32 0, i32 0
  %42 = load ptr, ptr %41, align 8, !tbaa !27
  store ptr %42, ptr %16, align 8, !tbaa !25
  call void @llvm.lifetime.start.p0(i64 8, ptr %17) #3
  %43 = getelementptr inbounds nuw %struct.Qureg, ptr %5, i32 0, i32 7
  %44 = getelementptr inbounds nuw %struct.ComplexArray, ptr %43, i32 0, i32 1
  %45 = load ptr, ptr %44, align 8, !tbaa !28
  store ptr %45, ptr %17, align 8, !tbaa !25
  call void @llvm.lifetime.start.p0(i64 8, ptr %18) #3
  %46 = getelementptr inbounds nuw %struct.Qureg, ptr %8, i32 0, i32 7
  %47 = getelementptr inbounds nuw %struct.ComplexArray, ptr %46, i32 0, i32 0
  %48 = load ptr, ptr %47, align 8, !tbaa !27
  store ptr %48, ptr %18, align 8, !tbaa !25
  call void @llvm.lifetime.start.p0(i64 8, ptr %19) #3
  %49 = getelementptr inbounds nuw %struct.Qureg, ptr %8, i32 0, i32 7
  %50 = getelementptr inbounds nuw %struct.ComplexArray, ptr %49, i32 0, i32 1
  %51 = load ptr, ptr %50, align 8, !tbaa !28
  store ptr %51, ptr %19, align 8, !tbaa !25
  call void @llvm.lifetime.start.p0(i64 8, ptr %20) #3
  %52 = getelementptr inbounds nuw %struct.Complex, ptr %10, i32 0, i32 0
  %53 = load double, ptr %52, align 8, !tbaa !37
  store double %53, ptr %20, align 8, !tbaa !10
  call void @llvm.lifetime.start.p0(i64 8, ptr %21) #3
  %54 = getelementptr inbounds nuw %struct.Complex, ptr %10, i32 0, i32 1
  %55 = load double, ptr %54, align 8, !tbaa !39
  store double %55, ptr %21, align 8, !tbaa !10
  call void @llvm.lifetime.start.p0(i64 8, ptr %22) #3
  %56 = getelementptr inbounds nuw %struct.Complex, ptr %11, i32 0, i32 0
  %57 = load double, ptr %56, align 8, !tbaa !37
  store double %57, ptr %22, align 8, !tbaa !10
  call void @llvm.lifetime.start.p0(i64 8, ptr %23) #3
  %58 = getelementptr inbounds nuw %struct.Complex, ptr %11, i32 0, i32 1
  %59 = load double, ptr %58, align 8, !tbaa !39
  store double %59, ptr %23, align 8, !tbaa !10
  call void @llvm.lifetime.start.p0(i64 8, ptr %24) #3
  %60 = getelementptr inbounds nuw %struct.Complex, ptr %12, i32 0, i32 0
  %61 = load double, ptr %60, align 8, !tbaa !37
  store double %61, ptr %24, align 8, !tbaa !10
  call void @llvm.lifetime.start.p0(i64 8, ptr %25) #3
  %62 = getelementptr inbounds nuw %struct.Complex, ptr %12, i32 0, i32 1
  %63 = load double, ptr %62, align 8, !tbaa !39
  store double %63, ptr %25, align 8, !tbaa !10
  call void (ptr, i32, ptr, ...) @__kmpc_fork_call(ptr @3, i32 13, ptr @statevec_setWeightedQureg.omp_outlined, ptr %13, ptr %14, ptr %15, ptr %16, ptr %17, ptr %18, ptr %19, ptr %24, ptr %25, ptr %20, ptr %21, ptr %22, ptr %23)
  call void @llvm.lifetime.end.p0(i64 8, ptr %25) #3
  call void @llvm.lifetime.end.p0(i64 8, ptr %24) #3
  call void @llvm.lifetime.end.p0(i64 8, ptr %23) #3
  call void @llvm.lifetime.end.p0(i64 8, ptr %22) #3
  call void @llvm.lifetime.end.p0(i64 8, ptr %21) #3
  call void @llvm.lifetime.end.p0(i64 8, ptr %20) #3
  call void @llvm.lifetime.end.p0(i64 8, ptr %19) #3
  call void @llvm.lifetime.end.p0(i64 8, ptr %18) #3
  call void @llvm.lifetime.end.p0(i64 8, ptr %17) #3
  call void @llvm.lifetime.end.p0(i64 8, ptr %16) #3
  call void @llvm.lifetime.end.p0(i64 8, ptr %15) #3
  call void @llvm.lifetime.end.p0(i64 8, ptr %14) #3
  call void @llvm.lifetime.end.p0(i64 8, ptr %13) #3
  ret void
}