; Function Attrs: nounwind uwtable
define void @statevec_setWeightedQureg(double %0, double %1, ptr noundef readonly byval(%struct.Qureg) align 8 captures(none) %2, double %3, double %4, ptr noundef readonly byval(%struct.Qureg) align 8 captures(none) %5, double %6, double %7, ptr noundef readonly byval(%struct.Qureg) align 8 captures(none) %8) local_unnamed_addr #1 {
  %10 = alloca i64, align 8
  %11 = alloca ptr, align 8
  %12 = alloca ptr, align 8
  %13 = alloca ptr, align 8
  %14 = alloca ptr, align 8
  %15 = alloca ptr, align 8
  %16 = alloca ptr, align 8
  %17 = alloca double, align 8
  %18 = alloca double, align 8
  %19 = alloca double, align 8
  %20 = alloca double, align 8
  %21 = alloca double, align 8
  %22 = alloca double, align 8
  call void @llvm.lifetime.start.p0(i64 8, ptr nonnull %10) #4
  %23 = getelementptr inbounds nuw i8, ptr %2, i64 16
  %24 = load i64, ptr %23, align 8, !tbaa !8
  store i64 %24, ptr %10, align 8, !tbaa !16
  call void @llvm.lifetime.start.p0(i64 8, ptr nonnull %11) #4
  %25 = getelementptr inbounds nuw i8, ptr %2, i64 40
  %26 = load ptr, ptr %25, align 8, !tbaa !22
  store ptr %26, ptr %11, align 8, !tbaa !26
  call void @llvm.lifetime.start.p0(i64 8, ptr nonnull %12) #4
  %27 = getelementptr inbounds nuw i8, ptr %2, i64 48
  %28 = load ptr, ptr %27, align 8, !tbaa !24
  store ptr %28, ptr %12, align 8, !tbaa !26
  call void @llvm.lifetime.start.p0(i64 8, ptr nonnull %13) #4
  %29 = getelementptr inbounds nuw i8, ptr %5, i64 40
  %30 = load ptr, ptr %29, align 8, !tbaa !22
  store ptr %30, ptr %13, align 8, !tbaa !26
  call void @llvm.lifetime.start.p0(i64 8, ptr nonnull %14) #4
  %31 = getelementptr inbounds nuw i8, ptr %5, i64 48
  %32 = load ptr, ptr %31, align 8, !tbaa !24
  store ptr %32, ptr %14, align 8, !tbaa !26
  call void @llvm.lifetime.start.p0(i64 8, ptr nonnull %15) #4
  %33 = getelementptr inbounds nuw i8, ptr %8, i64 40
  %34 = load ptr, ptr %33, align 8, !tbaa !22
  store ptr %34, ptr %15, align 8, !tbaa !26
  call void @llvm.lifetime.start.p0(i64 8, ptr nonnull %16) #4
  %35 = getelementptr inbounds nuw i8, ptr %8, i64 48
  %36 = load ptr, ptr %35, align 8, !tbaa !24
  store ptr %36, ptr %16, align 8, !tbaa !26
  call void @llvm.lifetime.start.p0(i64 8, ptr nonnull %17) #4
  store double %0, ptr %17, align 8, !tbaa !4
  call void @llvm.lifetime.start.p0(i64 8, ptr nonnull %18) #4
  store double %1, ptr %18, align 8, !tbaa !4
  call void @llvm.lifetime.start.p0(i64 8, ptr nonnull %19) #4
  store double %3, ptr %19, align 8, !tbaa !4
  call void @llvm.lifetime.start.p0(i64 8, ptr nonnull %20) #4
  store double %4, ptr %20, align 8, !tbaa !4
  call void @llvm.lifetime.start.p0(i64 8, ptr nonnull %21) #4
  store double %6, ptr %21, align 8, !tbaa !4
  call void @llvm.lifetime.start.p0(i64 8, ptr nonnull %22) #4
  store double %7, ptr %22, align 8, !tbaa !4
  call void (ptr, i32, ptr, ...) @__kmpc_fork_call(ptr nonnull @3, i32 13, ptr nonnull @statevec_setWeightedQureg.omp_outlined, ptr nonnull %10, ptr nonnull %11, ptr nonnull %12, ptr nonnull %13, ptr nonnull %14, ptr nonnull %15, ptr nonnull %16, ptr nonnull %21, ptr nonnull %22, ptr nonnull %17, ptr nonnull %18, ptr nonnull %19, ptr nonnull %20)
  call void @llvm.lifetime.end.p0(i64 8, ptr nonnull %22) #4
  call void @llvm.lifetime.end.p0(i64 8, ptr nonnull %21) #4
  call void @llvm.lifetime.end.p0(i64 8, ptr nonnull %20) #4
  call void @llvm.lifetime.end.p0(i64 8, ptr nonnull %19) #4
  call void @llvm.lifetime.end.p0(i64 8, ptr nonnull %18) #4
  call void @llvm.lifetime.end.p0(i64 8, ptr nonnull %17) #4
  call void @llvm.lifetime.end.p0(i64 8, ptr nonnull %16) #4
  call void @llvm.lifetime.end.p0(i64 8, ptr nonnull %15) #4
  call void @llvm.lifetime.end.p0(i64 8, ptr nonnull %14) #4
  call void @llvm.lifetime.end.p0(i64 8, ptr nonnull %13) #4
  call void @llvm.lifetime.end.p0(i64 8, ptr nonnull %12) #4
  call void @llvm.lifetime.end.p0(i64 8, ptr nonnull %11) #4
  call void @llvm.lifetime.end.p0(i64 8, ptr nonnull %10) #4
  ret void
}